target datalayout = "e-m:e-p270:32:32-p271:32:32-p272:64:64-i64:64-i128:128-f80:128-n8:16:32:64-S128"
target triple = "x86_64-pc-linux-gnu"

%struct.ldmParams_t = type { i32, i32, i32, i32, i32, i32 }
%struct.ldmRollingHashState_t = type { i64, i64 }
%struct.ldmEntry_t = type { i32, i32 }
%struct.ldmState_t = type { %struct.ZSTD_window_t, ptr, i32, ptr, [64 x i64], [64 x %struct.ldmMatchCandidate_t] }
%struct.ZSTD_window_t = type { ptr, ptr, ptr, i32, i32, i32 }
%struct.ldmMatchCandidate_t = type { ptr, i32, i32, ptr }

; Function Attrs: nounwind uwtable
define internal ptr @ZSTD_ldm_getBucket(ptr noundef %0, i64 noundef %1, ptr noundef byval(%struct.ldmParams_t) align 8 %2) #0 {
  %4 = alloca ptr, align 8
  %5 = alloca i64, align 8
  store ptr %0, ptr %4, align 8
  store i64 %1, ptr %5, align 8
  %6 = load ptr, ptr %4, align 8
  %7 = getelementptr inbounds %struct.ldmState_t, ptr %6, i32 0, i32 1
  %8 = load ptr, ptr %7, align 8
  %9 = load i64, ptr %5, align 8
  %10 = getelementptr inbounds %struct.ldmParams_t, ptr %2, i32 0, i32 2
  %11 = load i32, ptr %10, align 8
  %12 = zext i32 %11 to i64
  %13 = shl i64 %9, %12
  %14 = getelementptr inbounds %struct.ldmEntry_t, ptr %8, i64 %13
  ret ptr %14
}

; Function Attrs: nounwind uwtable
define internal void @ZSTD_ldm_insertEntry(ptr noundef %0, i64 noundef %1, i64 %2, ptr noundef byval(%struct.ldmParams_t) align 8 %3) #0 {
  %5 = alloca %struct.ldmEntry_t, align 4
  %6 = alloca ptr, align 8
  %7 = alloca i64, align 8
  %8 = alloca ptr, align 8
  %9 = alloca i32, align 4
  store i64 %2, ptr %5, align 4
  store ptr %0, ptr %6, align 8
  store i64 %1, ptr %7, align 8
  %10 = load ptr, ptr %6, align 8
  %11 = getelementptr inbounds %struct.ldmState_t, ptr %10, i32 0, i32 3
  %12 = load ptr, ptr %11, align 8
  %13 = load i64, ptr %7, align 8
  %14 = getelementptr inbounds i8, ptr %12, i64 %13
  store ptr %14, ptr %8, align 8
  %15 = load ptr, ptr %8, align 8
  %16 = load i8, ptr %15, align 1
  %17 = zext i8 %16 to i32
  store i32 %17, ptr %9, align 4
  %18 = load ptr, ptr %6, align 8
  %19 = load i64, ptr %7, align 8
  %20 = call ptr @ZSTD_ldm_getBucket(ptr noundef %18, i64 noundef %19, ptr noundef byval(%struct.ldmParams_t) align 8 %3)
  %21 = load i32, ptr %9, align 4
  %22 = zext i32 %21 to i64
  %23 = getelementptr inbounds %struct.ldmEntry_t, ptr %20, i64 %22
  call void @llvm.memcpy.p0.p0.i64(ptr align 4 %23, ptr align 4 %5, i64 8, i1 false)
  %24 = load i32, ptr %9, align 4
  %25 = add i32 %24, 1
  %26 = getelementptr inbounds %struct.ldmParams_t, ptr %3, i32 0, i32 2
  %27 = load i32, ptr %26, align 8
  %28 = shl i32 1, %27
  %29 = sub i32 %28, 1
  %30 = and i32 %25, %29
  %31 = trunc i32 %30 to i8
  %32 = load ptr, ptr %8, align 8
  store i8 %31, ptr %32, align 1
  ret void
}

; Function Attrs: nounwind uwtable
define internal void @ZSTD_ldm_gear_init(ptr noundef %0, ptr noundef %1) #0 {
  %3 = alloca ptr, align 8
  %4 = alloca ptr, align 8
  %5 = alloca i32, align 4
  %6 = alloca i32, align 4
  store ptr %0, ptr %3, align 8
  store ptr %1, ptr %4, align 8
  %7 = load ptr, ptr %4, align 8
  %8 = getelementptr inbounds %struct.ldmParams_t, ptr %7, i32 0, i32 3
  %9 = load i32, ptr %8, align 4
  %10 = icmp ult i32 %9, 64
  br i1 %10, label %11, label %15

11:                                               ; preds = %2
  %12 = load ptr, ptr %4, align 8
  %13 = getelementptr inbounds %struct.ldmParams_t, ptr %12, i32 0, i32 3
  %14 = load i32, ptr %13, align 4
  br label %16

15:                                               ; preds = %2
  br label %16

16:                                               ; preds = %15, %11
  %17 = phi i32 [ %14, %11 ], [ 64, %15 ]
  store i32 %17, ptr %5, align 4
  %18 = load ptr, ptr %4, align 8
  %19 = getelementptr inbounds %struct.ldmParams_t, ptr %18, i32 0, i32 4
  %20 = load i32, ptr %19, align 4
  store i32 %20, ptr %6, align 4
  %21 = load ptr, ptr %3, align 8
  %22 = getelementptr inbounds %struct.ldmRollingHashState_t, ptr %21, i32 0, i32 0
  store i64 4294967295, ptr %22, align 8
  %23 = load i32, ptr %6, align 4
  %24 = icmp ugt i32 %23, 0
  br i1 %24, label %25, label %41

25:                                               ; preds = %16
  %26 = load i32, ptr %6, align 4
  %27 = load i32, ptr %5, align 4
  %28 = icmp ule i32 %26, %27
  br i1 %28, label %29, label %41

29:                                               ; preds = %25
  %30 = load i32, ptr %6, align 4
  %31 = zext i32 %30 to i64
  %32 = shl i64 1, %31
  %33 = sub i64 %32, 1
  %34 = load i32, ptr %5, align 4
  %35 = load i32, ptr %6, align 4
  %36 = sub i32 %34, %35
  %37 = zext i32 %36 to i64
  %38 = shl i64 %33, %37
  %39 = load ptr, ptr %3, align 8
  %40 = getelementptr inbounds %struct.ldmRollingHashState_t, ptr %39, i32 0, i32 1
  store i64 %38, ptr %40, align 8
  br label %48

41:                                               ; preds = %25, %16
  %42 = load i32, ptr %6, align 4
  %43 = zext i32 %42 to i64
  %44 = shl i64 1, %43
  %45 = sub i64 %44, 1
  %46 = load ptr, ptr %3, align 8
  %47 = getelementptr inbounds %struct.ldmRollingHashState_t, ptr %46, i32 0, i32 1
  store i64 %45, ptr %47, align 8
  br label %48

48:                                               ; preds = %41, %29
  ret void
}

; Function Attrs: nounwind uwtable
define dso_local void @ZSTD_ldm_fillHashTable(ptr noundef %0, ptr noundef %1, ptr noundef %2, ptr noundef %3) #0 {
  %5 = alloca ptr, align 8
  %6 = alloca ptr, align 8
  %7 = alloca ptr, align 8
  %8 = alloca ptr, align 8
  %9 = alloca i32, align 4
  %10 = alloca i32, align 4
  %11 = alloca ptr, align 8
  %12 = alloca ptr, align 8
  %13 = alloca %struct.ldmRollingHashState_t, align 8
  %14 = alloca ptr, align 8
  %15 = alloca i32, align 4
  %16 = alloca i64, align 8
  %17 = alloca i32, align 4
  %18 = alloca ptr, align 8
  %19 = alloca i64, align 8
  %20 = alloca i32, align 4
  %21 = alloca %struct.ldmEntry_t, align 4
  %22 = alloca %struct.ldmParams_t, align 8
  store ptr %0, ptr %5, align 8
  store ptr %1, ptr %6, align 8
  store ptr %2, ptr %7, align 8
  store ptr %3, ptr %8, align 8
  %23 = load ptr, ptr %8, align 8
  %24 = getelementptr inbounds %struct.ldmParams_t, ptr %23, i32 0, i32 3
  %25 = load i32, ptr %24, align 4
  store i32 %25, ptr %9, align 4
  %26 = load ptr, ptr %8, align 8
  %27 = getelementptr inbounds %struct.ldmParams_t, ptr %26, i32 0, i32 1
  %28 = load i32, ptr %27, align 4
  %29 = load ptr, ptr %8, align 8
  %30 = getelementptr inbounds %struct.ldmParams_t, ptr %29, i32 0, i32 2
  %31 = load i32, ptr %30, align 4
  %32 = sub i32 %28, %31
  store i32 %32, ptr %10, align 4
  %33 = load ptr, ptr %5, align 8
  %34 = getelementptr inbounds %struct.ldmState_t, ptr %33, i32 0, i32 0
  %35 = getelementptr inbounds %struct.ZSTD_window_t, ptr %34, i32 0, i32 1
  %36 = load ptr, ptr %35, align 8
  store ptr %36, ptr %11, align 8
  %37 = load ptr, ptr %6, align 8
  store ptr %37, ptr %12, align 8
  %38 = load ptr, ptr %5, align 8
  %39 = getelementptr inbounds %struct.ldmState_t, ptr %38, i32 0, i32 4
  %40 = getelementptr inbounds [64 x i64], ptr %39, i64 0, i64 0
  store ptr %40, ptr %14, align 8
  %41 = load ptr, ptr %8, align 8
  call void @ZSTD_ldm_gear_init(ptr noundef %13, ptr noundef %41)
  br label %42

42:                                               ; preds = %115, %4
  %43 = load ptr, ptr %6, align 8
  %44 = load ptr, ptr %7, align 8
  %45 = icmp ult ptr %43, %44
  br i1 %45, label %46, label %119

46:                                               ; preds = %42
  store i32 0, ptr %15, align 4
  %47 = load ptr, ptr %6, align 8
  %48 = load ptr, ptr %7, align 8
  %49 = load ptr, ptr %6, align 8
  %50 = ptrtoint ptr %48 to i64
  %51 = ptrtoint ptr %49 to i64
  %52 = sub i64 %50, %51
  %53 = load ptr, ptr %14, align 8
  %54 = call i64 @ZSTD_ldm_gear_feed(ptr noundef %13, ptr noundef %47, i64 noundef %52, ptr noundef %53, ptr noundef %15)
  store i64 %54, ptr %16, align 8
  store i32 0, ptr %17, align 4
  br label %55

55:                                               ; preds = %112, %46
  %56 = load i32, ptr %17, align 4
  %57 = load i32, ptr %15, align 4
  %58 = icmp ult i32 %56, %57
  br i1 %58, label %59, label %115

59:                                               ; preds = %55
  %60 = load ptr, ptr %6, align 8
  %61 = load ptr, ptr %14, align 8
  %62 = load i32, ptr %17, align 4
  %63 = zext i32 %62 to i64
  %64 = getelementptr inbounds i64, ptr %61, i64 %63
  %65 = load i64, ptr %64, align 8
  %66 = getelementptr inbounds i8, ptr %60, i64 %65
  %67 = load ptr, ptr %12, align 8
  %68 = load i32, ptr %9, align 4
  %69 = zext i32 %68 to i64
  %70 = getelementptr inbounds i8, ptr %67, i64 %69
  %71 = icmp uge ptr %66, %70
  br i1 %71, label %72, label %111

72:                                               ; preds = %59
  %73 = load ptr, ptr %6, align 8
  %74 = load ptr, ptr %14, align 8
  %75 = load i32, ptr %17, align 4
  %76 = zext i32 %75 to i64
  %77 = getelementptr inbounds i64, ptr %74, i64 %76
  %78 = load i64, ptr %77, align 8
  %79 = getelementptr inbounds i8, ptr %73, i64 %78
  %80 = load i32, ptr %9, align 4
  %81 = zext i32 %80 to i64
  %82 = sub i64 0, %81
  %83 = getelementptr inbounds i8, ptr %79, i64 %82
  store ptr %83, ptr %18, align 8
  %84 = load ptr, ptr %18, align 8
  %85 = load i32, ptr %9, align 4
  %86 = zext i32 %85 to i64
  %87 = call i64 @ZSTD_XXH64(ptr noundef %84, i64 noundef %86, i64 noundef 0)
  store i64 %87, ptr %19, align 8
  %88 = load i64, ptr %19, align 8
  %89 = load i32, ptr %10, align 4
  %90 = shl i32 1, %89
  %91 = sub i32 %90, 1
  %92 = zext i32 %91 to i64
  %93 = and i64 %88, %92
  %94 = trunc i64 %93 to i32
  store i32 %94, ptr %20, align 4
  %95 = load ptr, ptr %18, align 8
  %96 = load ptr, ptr %11, align 8
  %97 = ptrtoint ptr %95 to i64
  %98 = ptrtoint ptr %96 to i64
  %99 = sub i64 %97, %98
  %100 = trunc i64 %99 to i32
  %101 = getelementptr inbounds %struct.ldmEntry_t, ptr %21, i32 0, i32 0
  store i32 %100, ptr %101, align 4
  %102 = load i64, ptr %19, align 8
  %103 = lshr i64 %102, 32
  %104 = trunc i64 %103 to i32
  %105 = getelementptr inbounds %struct.ldmEntry_t, ptr %21, i32 0, i32 1
  store i32 %104, ptr %105, align 4
  %106 = load ptr, ptr %5, align 8
  %107 = load i32, ptr %20, align 4
  %108 = zext i32 %107 to i64
  %109 = load ptr, ptr %8, align 8
  %110 = load i64, ptr %21, align 4
  call void @llvm.memcpy.p0.p0.i64(ptr align 8 %22, ptr align 4 %109, i64 24, i1 false)
  call void @ZSTD_ldm_insertEntry(ptr noundef %106, i64 noundef %108, i64 %110, ptr noundef byval(%struct.ldmParams_t) align 8 %22)
  br label %111

111:                                              ; preds = %72, %59
  br label %112

112:                                              ; preds = %111
  %113 = load i32, ptr %17, align 4
  %114 = add i32 %113, 1
  store i32 %114, ptr %17, align 4
  br label %55, !llvm.loop !5

115:                                              ; preds = %55
  %116 = load i64, ptr %16, align 8
  %117 = load ptr, ptr %6, align 8
  %118 = getelementptr inbounds i8, ptr %117, i64 %116
  store ptr %118, ptr %6, align 8
  br label %42, !llvm.loop !7

119:                                              ; preds = %42
  ret void
}